target datalayout = "e-m:e-p270:32:32-p271:32:32-p272:64:64-i64:64-i128:128-f80:128-n8:16:32:64-S128"
target triple = "x86_64-pc-linux-gnu"

; Function Attrs: null_pointer_is_valid sspstrong uwtable
define internal i32 @get_xot_pdu_len(ptr noundef %0, ptr noundef %1, i32 noundef %2, ptr noundef %3) #0 {
  %5 = alloca i32, align 4
  %6 = alloca ptr, align 8
  %7 = alloca ptr, align 8
  %8 = alloca i32, align 4
  %9 = alloca ptr, align 8
  %10 = alloca i16, align 2
  %11 = alloca i32, align 4
  %12 = alloca i32, align 4
  store ptr %0, ptr %6, align 8
  store ptr %1, ptr %7, align 8
  store i32 %2, ptr %8, align 4
  store ptr %3, ptr %9, align 8
  call void @llvm.lifetime.start.p0(i64 2, ptr %10) #3
  call void @llvm.lifetime.start.p0(i64 4, ptr %11) #3
  %13 = load ptr, ptr %7, align 8
  %14 = load i32, ptr %8, align 4
  %15 = call i32 @tvb_captured_length_remaining(ptr noundef %13, i32 noundef %14)
  store i32 %15, ptr %11, align 4
  %16 = load i32, ptr %11, align 4
  %17 = icmp slt i32 %16, 4
  br i1 %17, label %18, label %20

18:                                               ; preds = %4
  %19 = load i32, ptr %11, align 4
  store i32 %19, ptr %5, align 4
  store i32 1, ptr %12, align 4
  br label %28

20:                                               ; preds = %4
  %21 = load ptr, ptr %7, align 8
  %22 = load i32, ptr %8, align 4
  %23 = add i32 %22, 2
  %24 = call zeroext i16 @tvb_get_ntohs(ptr noundef %21, i32 noundef %23)
  store i16 %24, ptr %10, align 2
  %25 = load i16, ptr %10, align 2
  %26 = zext i16 %25 to i32
  %27 = add i32 4, %26
  store i32 %27, ptr %5, align 4
  store i32 1, ptr %12, align 4
  br label %28

28:                                               ; preds = %20, %18
  call void @llvm.lifetime.end.p0(i64 4, ptr %11) #3
  call void @llvm.lifetime.end.p0(i64 2, ptr %10) #3
  %29 = load i32, ptr %5, align 4
  ret i32 %29
}