; Function Attrs: null_pointer_is_valid sspstrong uwtable
define internal range(i32 -2147483648, 65540) i32 @get_xot_pdu_len(ptr readnone captures(none) %0, ptr noundef %1, i32 noundef %2, ptr readnone captures(none) %3) #0 {
  %5 = tail call i32 @tvb_captured_length_remaining(ptr noundef %1, i32 noundef %2)
  %6 = icmp slt i32 %5, 4
  br i1 %6, label %12, label %7

7:                                                ; preds = %4
  %8 = add i32 %2, 2
  %9 = tail call zeroext i16 @tvb_get_ntohs(ptr noundef %1, i32 noundef %8)
  %10 = zext i16 %9 to i32
  %11 = add nuw nsw i32 %10, 4
  br label %12

12:                                               ; preds = %4, %7
  %.0 = phi i32 [ %11, %7 ], [ %5, %4 ]
  ret i32 %.0
}